; Function Attrs: mustprogress nounwind uwtable
define hidden void @_ZN17G1SurvivorRegionsC2Ev(ptr noundef nonnull align 8 dereferenceable(32) %0) unnamed_addr #0 align 2 {
  %2 = tail call noundef ptr @_ZN6AnyObjnwEm8MEMFLAGS(i64 noundef 24, i8 noundef zeroext 5) #7
  %3 = icmp eq ptr %2, null
  br i1 %3, label %9, label %4

4:                                                ; preds = %1
  %5 = tail call noundef ptr @_ZN27GrowableArrayCHeapAllocator8allocateEii8MEMFLAGS(i32 noundef 8, i32 noundef 8, i8 noundef zeroext 5) #7
  store i32 0, ptr %2, align 4
  %6 = getelementptr inbounds i8, ptr %2, i64 4
  store i32 8, ptr %6, align 4
  %7 = getelementptr inbounds i8, ptr %2, i64 8
  store ptr %5, ptr %7, align 8
  tail call void @llvm.memset.p0.i64(ptr noundef nonnull align 8 dereferenceable(64) %5, i8 0, i64 64, i1 false)
  %8 = getelementptr inbounds i8, ptr %2, i64 16
  store i64 11, ptr %8, align 8
  br label %9

9:                                                ; preds = %4, %1
  store ptr %2, ptr %0, align 8
  %10 = getelementptr inbounds i8, ptr %0, i64 8
  store volatile i64 0, ptr %10, align 8
  %11 = getelementptr inbounds i8, ptr %0, i64 16
  tail call void @_ZN16G1RegionsOnNodesC1Ev(ptr noundef nonnull align 8 dereferenceable(16) %11) #7
  ret void
}